target datalayout = "e-m:e-p270:32:32-p271:32:32-p272:64:64-i64:64-i128:128-f80:128-n8:16:32:64-S128"
target triple = "x86_64-pc-linux-gnu"

%struct.sentinelState = type { [41 x i8], i64, ptr, i32, i32, i64, i64, ptr, ptr, i32, i64, i32, ptr, ptr, i32, i32 }

@sentinel = dso_local global %struct.sentinelState zeroinitializer, align 8
@sentinel_tilt_trigger = internal global i64 2000, align 8
@.str.446 = private unnamed_addr constant [6 x i8] c"+tilt\00", align 1
@.str.447 = private unnamed_addr constant [19 x i8] c"#tilt mode entered\00", align 1

; Function Attrs: nounwind uwtable
define dso_local void @sentinelCheckTiltCondition() #0 {
  %1 = alloca i64, align 8
  %2 = alloca i64, align 8
  call void @llvm.lifetime.start.p0(i64 8, ptr %1) #16
  %3 = call i64 @mstime()
  store i64 %3, ptr %1, align 8, !tbaa !119
  call void @llvm.lifetime.start.p0(i64 8, ptr %2) #16
  %4 = load i64, ptr %1, align 8, !tbaa !119
  %5 = load i64, ptr getelementptr inbounds nuw (%struct.sentinelState, ptr @sentinel, i32 0, i32 6), align 8, !tbaa !68
  %6 = sub nsw i64 %4, %5
  store i64 %6, ptr %2, align 8, !tbaa !119
  %7 = load i64, ptr %2, align 8, !tbaa !119
  %8 = icmp slt i64 %7, 0
  br i1 %8, label %13, label %9

9:                                                ; preds = %0
  %10 = load i64, ptr %2, align 8, !tbaa !119
  %11 = load i64, ptr @sentinel_tilt_trigger, align 8, !tbaa !119
  %12 = icmp sgt i64 %10, %11
  br i1 %12, label %13, label %15

13:                                               ; preds = %9, %0
  store i32 1, ptr getelementptr inbounds nuw (%struct.sentinelState, ptr @sentinel, i32 0, i32 3), align 8, !tbaa !66
  %14 = call i64 @mstime()
  store i64 %14, ptr getelementptr inbounds nuw (%struct.sentinelState, ptr @sentinel, i32 0, i32 5), align 8, !tbaa !67
  call void (i32, ptr, ptr, ptr, ...) @sentinelEvent(i32 noundef 3, ptr noundef @.str.446, ptr noundef null, ptr noundef @.str.447)
  br label %15

15:                                               ; preds = %13, %9
  %16 = call i64 @mstime()
  store i64 %16, ptr getelementptr inbounds nuw (%struct.sentinelState, ptr @sentinel, i32 0, i32 6), align 8, !tbaa !68
  call void @llvm.lifetime.end.p0(i64 8, ptr %2) #16
  call void @llvm.lifetime.end.p0(i64 8, ptr %1) #16
  ret void
}