; Function Attrs: nounwind uwtable
define dso_local void @sentinelCheckTiltCondition() local_unnamed_addr #0 {
  %1 = tail call i64 @mstime() #30
  %2 = load i64, ptr getelementptr inbounds nuw (i8, ptr @sentinel, i64 80), align 8, !tbaa !68
  %3 = sub nsw i64 %1, %2
  %4 = icmp slt i64 %3, 0
  %5 = load i64, ptr @sentinel_tilt_trigger, align 8
  %6 = icmp sgt i64 %3, %5
  %or.cond = select i1 %4, i1 true, i1 %6
  br i1 %or.cond, label %7, label %9

7:                                                ; preds = %0
  store i32 1, ptr getelementptr inbounds nuw (i8, ptr @sentinel, i64 64), align 8, !tbaa !66
  %8 = tail call i64 @mstime() #30
  store i64 %8, ptr getelementptr inbounds nuw (i8, ptr @sentinel, i64 72), align 8, !tbaa !67
  tail call void (i32, ptr, ptr, ptr, ...) @sentinelEvent(i32 noundef 3, ptr noundef nonnull @.str.446, ptr noundef null, ptr noundef nonnull @.str.447)
  br label %9

9:                                                ; preds = %0, %7
  %10 = tail call i64 @mstime() #30
  store i64 %10, ptr getelementptr inbounds nuw (i8, ptr @sentinel, i64 80), align 8, !tbaa !68
  ret void
}